ARM GAS  C:\Users\MARCUS~1\AppData\Local\Temp\ccwRvUNC.s 			page 1


   1              		.syntax unified
   2              		.cpu cortex-m3
   3              		.fpu softvfp
   4              		.eabi_attribute 20, 1
   5              		.eabi_attribute 21, 1
   6              		.eabi_attribute 23, 3
   7              		.eabi_attribute 24, 1
   8              		.eabi_attribute 25, 1
   9              		.eabi_attribute 26, 1
  10              		.eabi_attribute 30, 1
  11              		.eabi_attribute 34, 1
  12              		.eabi_attribute 18, 4
  13              		.thumb
  14              		.syntax unified
  15              		.file	"main.c"
  16              		.text
  17              	.Ltext0:
  18              		.cfi_sections	.debug_frame
  19              		.section	.text.main,"ax",%progbits
  20              		.align	2
  21              		.global	main
  22              		.thumb
  23              		.thumb_func
  24              		.type	main, %function
  25              	main:
  26              	.LFB63:
  27              		.file 1 "main.c"
   1:main.c        **** /* ========================================
   2:main.c        ****  *
   3:main.c        ****  * Copyright YOUR COMPANY, THE YEAR
   4:main.c        ****  * All Rights Reserved
   5:main.c        ****  * UNPUBLISHED, LICENSED SOFTWARE.
   6:main.c        ****  *
   7:main.c        ****  * CONFIDENTIAL AND PROPRIETARY INFORMATION
   8:main.c        ****  * WHICH IS THE PROPERTY OF your company.
   9:main.c        ****  *
  10:main.c        ****  * ========================================
  11:main.c        **** */
  12:main.c        **** #include "project.h"
  13:main.c        **** #include "light_control.h"
  14:main.c        **** 
  15:main.c        **** CY_ISR_PROTO(ISR_UART_rx_handler);
  16:main.c        **** void handleByteReceived(uint8_t byteReceived);
  17:main.c        **** int globalRed = 0;
  18:main.c        **** int globalGreen = 0;
  19:main.c        **** int globalBlue = 0;
  20:main.c        **** 
  21:main.c        **** int main(void)
  22:main.c        **** {
  28              		.loc 1 22 0
  29              		.cfi_startproc
  30              		@ Volatile: function does not return.
  31              		@ args = 0, pretend = 0, frame = 0
  32              		@ frame_needed = 0, uses_anonymous_args = 0
  33 0000 08B5     		push	{r3, lr}
  34              		.cfi_def_cfa_offset 8
  35              		.cfi_offset 3, -8
ARM GAS  C:\Users\MARCUS~1\AppData\Local\Temp\ccwRvUNC.s 			page 2


  36              		.cfi_offset 14, -4
  23:main.c        ****     CyGlobalIntEnable; /* Enable global interrupts. */
  37              		.loc 1 23 0
  38              		.syntax unified
  39              	@ 23 "main.c" 1
  40 0002 62B6     		CPSIE   i
  41              	@ 0 "" 2
  24:main.c        ****     isr_uart_rx_StartEx(ISR_UART_rx_handler);
  42              		.loc 1 24 0
  43              		.thumb
  44              		.syntax unified
  45 0004 0548     		ldr	r0, .L4
  46 0006 FFF7FEFF 		bl	isr_uart_rx_StartEx
  47              	.LVL0:
  25:main.c        ****     UART_1_Start();
  48              		.loc 1 25 0
  49 000a FFF7FEFF 		bl	UART_1_Start
  50              	.LVL1:
  26:main.c        ****     UART_1_PutString("Program started\r\n"); 
  51              		.loc 1 26 0
  52 000e 0448     		ldr	r0, .L4+4
  53 0010 FFF7FEFF 		bl	UART_1_PutString
  54              	.LVL2:
  27:main.c        ****     initLedControl();
  55              		.loc 1 27 0
  56 0014 FFF7FEFF 		bl	initLedControl
  57              	.LVL3:
  58              	.L2:
  59 0018 FEE7     		b	.L2
  60              	.L5:
  61 001a 00BF     		.align	2
  62              	.L4:
  63 001c 00000000 		.word	ISR_UART_rx_handler
  64 0020 00000000 		.word	.LC4
  65              		.cfi_endproc
  66              	.LFE63:
  67              		.size	main, .-main
  68              		.section	.text.handleByteReceived,"ax",%progbits
  69              		.align	2
  70              		.global	handleByteReceived
  71              		.thumb
  72              		.thumb_func
  73              		.type	handleByteReceived, %function
  74              	handleByteReceived:
  75              	.LFB65:
  28:main.c        ****     for(;;)
  29:main.c        ****     {
  30:main.c        ****         
  31:main.c        ****     }
  32:main.c        **** }
  33:main.c        **** 
  34:main.c        **** CY_ISR(ISR_UART_rx_handler)
  35:main.c        **** {
  36:main.c        ****     uint8_t bytesToRead = UART_1_GetRxBufferSize();    
  37:main.c        ****     //Read bytes
  38:main.c        ****     while (bytesToRead > 0)
  39:main.c        ****     {
ARM GAS  C:\Users\MARCUS~1\AppData\Local\Temp\ccwRvUNC.s 			page 3


  40:main.c        ****         uint8_t byteReceived = UART_1_ReadRxData();
  41:main.c        ****         UART_1_WriteTxData(byteReceived); // echo back
  42:main.c        ****         
  43:main.c        ****         handleByteReceived(byteReceived);
  44:main.c        ****         
  45:main.c        ****         bytesToRead--;
  46:main.c        ****     }
  47:main.c        **** }
  48:main.c        **** 
  49:main.c        **** void handleByteReceived(uint8_t byteReceived)
  50:main.c        **** {
  76              		.loc 1 50 0
  77              		.cfi_startproc
  78              		@ args = 0, pretend = 0, frame = 40
  79              		@ frame_needed = 0, uses_anonymous_args = 0
  80              	.LVL4:
  81 0000 00B5     		push	{lr}
  82              		.cfi_def_cfa_offset 4
  83              		.cfi_offset 14, -4
  84 0002 8BB0     		sub	sp, sp, #44
  85              		.cfi_def_cfa_offset 48
  51:main.c        ****     switch(byteReceived)
  86              		.loc 1 51 0
  87 0004 6138     		subs	r0, r0, #97
  88              	.LVL5:
  89 0006 1928     		cmp	r0, #25
  90 0008 00F2A080 		bhi	.L6
  91 000c DFE800F0 		tbb	[pc, r0]
  92              	.L9:
  93 0010 3C       		.byte	(.L8-.L9)/2
  94 0011 9E       		.byte	(.L6-.L9)/2
  95 0012 8E       		.byte	(.L10-.L9)/2
  96 0013 5C       		.byte	(.L11-.L9)/2
  97 0014 2C       		.byte	(.L12-.L9)/2
  98 0015 9E       		.byte	(.L6-.L9)/2
  99 0016 9E       		.byte	(.L6-.L9)/2
 100 0017 9E       		.byte	(.L6-.L9)/2
 101 0018 9E       		.byte	(.L6-.L9)/2
 102 0019 9E       		.byte	(.L6-.L9)/2
 103 001a 9E       		.byte	(.L6-.L9)/2
 104 001b 9E       		.byte	(.L6-.L9)/2
 105 001c 9E       		.byte	(.L6-.L9)/2
 106 001d 9E       		.byte	(.L6-.L9)/2
 107 001e 9E       		.byte	(.L6-.L9)/2
 108 001f 9E       		.byte	(.L6-.L9)/2
 109 0020 0D       		.byte	(.L13-.L9)/2
 110 0021 9E       		.byte	(.L6-.L9)/2
 111 0022 4C       		.byte	(.L14-.L9)/2
 112 0023 9E       		.byte	(.L6-.L9)/2
 113 0024 9E       		.byte	(.L6-.L9)/2
 114 0025 9E       		.byte	(.L6-.L9)/2
 115 0026 1C       		.byte	(.L15-.L9)/2
 116 0027 7D       		.byte	(.L16-.L9)/2
 117 0028 9E       		.byte	(.L6-.L9)/2
 118 0029 6C       		.byte	(.L17-.L9)/2
 119              		.p2align 1
 120              	.L13:
ARM GAS  C:\Users\MARCUS~1\AppData\Local\Temp\ccwRvUNC.s 			page 4


  52:main.c        ****     {
  53:main.c        ****         case 'q' :
  54:main.c        ****         {
  55:main.c        ****             controlLight(0,(color_t){255,128,0});
 121              		.loc 1 55 0
 122 002a 4A4B     		ldr	r3, .L19
 123 002c 1A88     		ldrh	r2, [r3]	@ unaligned
 124 002e 9B78     		ldrb	r3, [r3, #2]	@ zero_extendqisi2
 125 0030 ADF80420 		strh	r2, [sp, #4]	@ unaligned
 126 0034 8DF80630 		strb	r3, [sp, #6]
 127 0038 0199     		ldr	r1, [sp, #4]
 128 003a 0020     		movs	r0, #0
 129 003c FFF7FEFF 		bl	controlLight
 130              	.LVL6:
  56:main.c        ****             UART_1_PutString("Red\r\n");
 131              		.loc 1 56 0
 132 0040 4548     		ldr	r0, .L19+4
 133 0042 FFF7FEFF 		bl	UART_1_PutString
 134              	.LVL7:
  57:main.c        ****         }
  58:main.c        ****         break;
 135              		.loc 1 58 0
 136 0046 81E0     		b	.L6
 137              	.L15:
  59:main.c        ****         case 'w' :
  60:main.c        ****         {
  61:main.c        ****             controlLight(1,(color_t)GREEN);
 138              		.loc 1 61 0
 139 0048 0023     		movs	r3, #0
 140 004a 8DF80830 		strb	r3, [sp, #8]
 141 004e FF22     		movs	r2, #255
 142 0050 8DF80920 		strb	r2, [sp, #9]
 143 0054 8DF80A30 		strb	r3, [sp, #10]
 144 0058 0299     		ldr	r1, [sp, #8]
 145 005a 0120     		movs	r0, #1
 146 005c FFF7FEFF 		bl	controlLight
 147              	.LVL8:
  62:main.c        ****             UART_1_PutString("Green\r\n");
 148              		.loc 1 62 0
 149 0060 3E48     		ldr	r0, .L19+8
 150 0062 FFF7FEFF 		bl	UART_1_PutString
 151              	.LVL9:
  63:main.c        ****         }
  64:main.c        ****         break;
 152              		.loc 1 64 0
 153 0066 71E0     		b	.L6
 154              	.L12:
  65:main.c        ****         case 'e' :
  66:main.c        ****         {
  67:main.c        ****             controlLight(2,(color_t)BLUE);
 155              		.loc 1 67 0
 156 0068 0023     		movs	r3, #0
 157 006a 8DF80C30 		strb	r3, [sp, #12]
 158 006e 8DF80D30 		strb	r3, [sp, #13]
 159 0072 FF23     		movs	r3, #255
 160 0074 8DF80E30 		strb	r3, [sp, #14]
 161 0078 0399     		ldr	r1, [sp, #12]
ARM GAS  C:\Users\MARCUS~1\AppData\Local\Temp\ccwRvUNC.s 			page 5


 162 007a 0220     		movs	r0, #2
 163 007c FFF7FEFF 		bl	controlLight
 164              	.LVL10:
  68:main.c        ****             UART_1_PutString("Blue\r\n");
 165              		.loc 1 68 0
 166 0080 3748     		ldr	r0, .L19+12
 167 0082 FFF7FEFF 		bl	UART_1_PutString
 168              	.LVL11:
  69:main.c        ****         }
  70:main.c        ****         break;
 169              		.loc 1 70 0
 170 0086 61E0     		b	.L6
 171              	.L8:
  71:main.c        ****         case'a':
  72:main.c        ****         {
  73:main.c        ****             controlLight(3,(color_t)PURPLE);
 172              		.loc 1 73 0
 173 0088 324B     		ldr	r3, .L19
 174 008a 33F8042F 		ldrh	r2, [r3, #4]!	@ unaligned
 175 008e 9B78     		ldrb	r3, [r3, #2]	@ zero_extendqisi2
 176 0090 ADF81020 		strh	r2, [sp, #16]	@ unaligned
 177 0094 8DF81230 		strb	r3, [sp, #18]
 178 0098 0499     		ldr	r1, [sp, #16]
 179 009a 0320     		movs	r0, #3
 180 009c FFF7FEFF 		bl	controlLight
 181              	.LVL12:
  74:main.c        ****             UART_1_PutString("Purple\r\n");
 182              		.loc 1 74 0
 183 00a0 3048     		ldr	r0, .L19+16
 184 00a2 FFF7FEFF 		bl	UART_1_PutString
 185              	.LVL13:
  75:main.c        ****         }
  76:main.c        ****         break;
 186              		.loc 1 76 0
 187 00a6 51E0     		b	.L6
 188              	.L14:
  77:main.c        ****         case's':
  78:main.c        ****         {
  79:main.c        ****             controlLight(4,(color_t)YELLOW);
 189              		.loc 1 79 0
 190 00a8 2A4B     		ldr	r3, .L19
 191 00aa 33F8082F 		ldrh	r2, [r3, #8]!	@ unaligned
 192 00ae 9B78     		ldrb	r3, [r3, #2]	@ zero_extendqisi2
 193 00b0 ADF81420 		strh	r2, [sp, #20]	@ unaligned
 194 00b4 8DF81630 		strb	r3, [sp, #22]
 195 00b8 0599     		ldr	r1, [sp, #20]
 196 00ba 0420     		movs	r0, #4
 197 00bc FFF7FEFF 		bl	controlLight
 198              	.LVL14:
  80:main.c        ****             UART_1_PutString("Yellowish\r\n");
 199              		.loc 1 80 0
 200 00c0 2948     		ldr	r0, .L19+20
 201 00c2 FFF7FEFF 		bl	UART_1_PutString
 202              	.LVL15:
  81:main.c        ****         }
  82:main.c        ****         break;
 203              		.loc 1 82 0
ARM GAS  C:\Users\MARCUS~1\AppData\Local\Temp\ccwRvUNC.s 			page 6


 204 00c6 41E0     		b	.L6
 205              	.L11:
  83:main.c        ****         case'd':
  84:main.c        ****         {
  85:main.c        ****             controlLight(5,(color_t)TURQUOISE);
 206              		.loc 1 85 0
 207 00c8 224B     		ldr	r3, .L19
 208 00ca 33F80C2F 		ldrh	r2, [r3, #12]!	@ unaligned
 209 00ce 9B78     		ldrb	r3, [r3, #2]	@ zero_extendqisi2
 210 00d0 ADF81820 		strh	r2, [sp, #24]	@ unaligned
 211 00d4 8DF81A30 		strb	r3, [sp, #26]
 212 00d8 0699     		ldr	r1, [sp, #24]
 213 00da 0520     		movs	r0, #5
 214 00dc FFF7FEFF 		bl	controlLight
 215              	.LVL16:
  86:main.c        ****             UART_1_PutString("Turqish\r\n");
 216              		.loc 1 86 0
 217 00e0 2248     		ldr	r0, .L19+24
 218 00e2 FFF7FEFF 		bl	UART_1_PutString
 219              	.LVL17:
  87:main.c        ****         }
  88:main.c        ****         break;
 220              		.loc 1 88 0
 221 00e6 31E0     		b	.L6
 222              	.L17:
  89:main.c        ****         case'z':
  90:main.c        ****         {
  91:main.c        ****             globalRed+=5;
 223              		.loc 1 91 0
 224 00e8 214B     		ldr	r3, .L19+28
 225 00ea 1A68     		ldr	r2, [r3]
 226 00ec 0532     		adds	r2, r2, #5
 227 00ee 1A60     		str	r2, [r3]
  92:main.c        ****             controlLight(6,(color_t){globalRed,globalGreen,globalBlue});
 228              		.loc 1 92 0
 229 00f0 8DF81C20 		strb	r2, [sp, #28]
 230 00f4 5A68     		ldr	r2, [r3, #4]
 231 00f6 8DF81D20 		strb	r2, [sp, #29]
 232 00fa 9B68     		ldr	r3, [r3, #8]
 233 00fc 8DF81E30 		strb	r3, [sp, #30]
 234 0100 0799     		ldr	r1, [sp, #28]
 235 0102 0620     		movs	r0, #6
 236 0104 FFF7FEFF 		bl	controlLight
 237              	.LVL18:
  93:main.c        ****         }
  94:main.c        ****         break;
 238              		.loc 1 94 0
 239 0108 20E0     		b	.L6
 240              	.L16:
  95:main.c        ****         case'x':
  96:main.c        ****         {
  97:main.c        ****             globalGreen+=5;
 241              		.loc 1 97 0
 242 010a 194B     		ldr	r3, .L19+28
 243 010c 5A68     		ldr	r2, [r3, #4]
 244 010e 0532     		adds	r2, r2, #5
 245 0110 5A60     		str	r2, [r3, #4]
ARM GAS  C:\Users\MARCUS~1\AppData\Local\Temp\ccwRvUNC.s 			page 7


  98:main.c        ****             controlLight(6,(color_t){globalRed,globalGreen,globalBlue});
 246              		.loc 1 98 0
 247 0112 1968     		ldr	r1, [r3]
 248 0114 8DF82010 		strb	r1, [sp, #32]
 249 0118 8DF82120 		strb	r2, [sp, #33]
 250 011c 9B68     		ldr	r3, [r3, #8]
 251 011e 8DF82230 		strb	r3, [sp, #34]
 252 0122 0899     		ldr	r1, [sp, #32]
 253 0124 0620     		movs	r0, #6
 254 0126 FFF7FEFF 		bl	controlLight
 255              	.LVL19:
  99:main.c        ****         }
 100:main.c        ****         break;
 256              		.loc 1 100 0
 257 012a 0FE0     		b	.L6
 258              	.L10:
 101:main.c        ****         case'c':
 102:main.c        ****         {
 103:main.c        ****             globalBlue+=5;
 259              		.loc 1 103 0
 260 012c 104A     		ldr	r2, .L19+28
 261 012e 9368     		ldr	r3, [r2, #8]
 262 0130 0533     		adds	r3, r3, #5
 263 0132 9360     		str	r3, [r2, #8]
 104:main.c        ****             controlLight(6,(color_t){globalRed,globalGreen,globalBlue});
 264              		.loc 1 104 0
 265 0134 1168     		ldr	r1, [r2]
 266 0136 8DF82410 		strb	r1, [sp, #36]
 267 013a 5268     		ldr	r2, [r2, #4]
 268 013c 8DF82520 		strb	r2, [sp, #37]
 269 0140 8DF82630 		strb	r3, [sp, #38]
 270 0144 0999     		ldr	r1, [sp, #36]
 271 0146 0620     		movs	r0, #6
 272 0148 FFF7FEFF 		bl	controlLight
 273              	.LVL20:
 274              	.L6:
 105:main.c        ****         }
 106:main.c        ****         break;
 107:main.c        ****         default :
 108:main.c        ****         {
 109:main.c        ****             // nothing
 110:main.c        ****         }
 111:main.c        ****         break;
 112:main.c        ****     }
 113:main.c        **** }...
 275              		.loc 1 113 0
 276 014c 0BB0     		add	sp, sp, #44
 277              		.cfi_def_cfa_offset 4
 278              		@ sp needed
 279 014e 5DF804FB 		ldr	pc, [sp], #4
 280              	.L20:
 281 0152 00BF     		.align	2
 282              	.L19:
 283 0154 00000000 		.word	.LANCHOR0
 284 0158 14000000 		.word	.LC5
 285 015c 1C000000 		.word	.LC6
 286 0160 24000000 		.word	.LC7
ARM GAS  C:\Users\MARCUS~1\AppData\Local\Temp\ccwRvUNC.s 			page 8


 287 0164 2C000000 		.word	.LC8
 288 0168 38000000 		.word	.LC9
 289 016c 44000000 		.word	.LC10
 290 0170 00000000 		.word	.LANCHOR1
 291              		.cfi_endproc
 292              	.LFE65:
 293              		.size	handleByteReceived, .-handleByteReceived
 294              		.section	.text.ISR_UART_rx_handler,"ax",%progbits
 295              		.align	2
 296              		.global	ISR_UART_rx_handler
 297              		.thumb
 298              		.thumb_func
 299              		.type	ISR_UART_rx_handler, %function
 300              	ISR_UART_rx_handler:
 301              	.LFB64:
  35:main.c        **** {
 302              		.loc 1 35 0
 303              		.cfi_startproc
 304              		@ args = 0, pretend = 0, frame = 0
 305              		@ frame_needed = 0, uses_anonymous_args = 0
 306 0000 38B5     		push	{r3, r4, r5, lr}
 307              		.cfi_def_cfa_offset 16
 308              		.cfi_offset 3, -16
 309              		.cfi_offset 4, -12
 310              		.cfi_offset 5, -8
 311              		.cfi_offset 14, -4
  36:main.c        ****     uint8_t bytesToRead = UART_1_GetRxBufferSize();    
 312              		.loc 1 36 0
 313 0002 FFF7FEFF 		bl	UART_1_GetRxBufferSize
 314              	.LVL21:
 315 0006 0446     		mov	r4, r0
 316              	.LVL22:
  38:main.c        ****     while (bytesToRead > 0)
 317              		.loc 1 38 0
 318 0008 09E0     		b	.L22
 319              	.L23:
 320              	.LBB2:
  40:main.c        ****         uint8_t byteReceived = UART_1_ReadRxData();
 321              		.loc 1 40 0
 322 000a FFF7FEFF 		bl	UART_1_ReadRxData
 323              	.LVL23:
 324 000e 0546     		mov	r5, r0
 325              	.LVL24:
  41:main.c        ****         UART_1_WriteTxData(byteReceived); // echo back
 326              		.loc 1 41 0
 327 0010 FFF7FEFF 		bl	UART_1_WriteTxData
 328              	.LVL25:
  43:main.c        ****         handleByteReceived(byteReceived);
 329              		.loc 1 43 0
 330 0014 2846     		mov	r0, r5
 331 0016 FFF7FEFF 		bl	handleByteReceived
 332              	.LVL26:
  45:main.c        ****         bytesToRead--;
 333              		.loc 1 45 0
 334 001a 013C     		subs	r4, r4, #1
 335              	.LVL27:
 336 001c E4B2     		uxtb	r4, r4
ARM GAS  C:\Users\MARCUS~1\AppData\Local\Temp\ccwRvUNC.s 			page 9


 337              	.LVL28:
 338              	.L22:
 339              	.LBE2:
  38:main.c        ****     while (bytesToRead > 0)
 340              		.loc 1 38 0
 341 001e 002C     		cmp	r4, #0
 342 0020 F3D1     		bne	.L23
  47:main.c        **** }
 343              		.loc 1 47 0
 344 0022 38BD     		pop	{r3, r4, r5, pc}
 345              		.cfi_endproc
 346              	.LFE64:
 347              		.size	ISR_UART_rx_handler, .-ISR_UART_rx_handler
 348              		.global	globalBlue
 349              		.global	globalGreen
 350              		.global	globalRed
 351              		.section	.rodata
 352              		.align	2
 353              		.set	.LANCHOR0,. + 0
 354              	.LC0:
 355 0000 FF       		.byte	-1
 356 0001 80       		.byte	-128
 357 0002 00       		.byte	0
 358 0003 00       		.space	1
 359              	.LC1:
 360 0004 FF       		.byte	-1
 361 0005 FF       		.byte	-1
 362 0006 00       		.byte	0
 363 0007 00       		.space	1
 364              	.LC2:
 365 0008 00       		.byte	0
 366 0009 FF       		.byte	-1
 367 000a FF       		.byte	-1
 368 000b 00       		.space	1
 369              	.LC3:
 370 000c FF       		.byte	-1
 371 000d 00       		.byte	0
 372 000e FF       		.byte	-1
 373              		.section	.rodata.str1.4,"aMS",%progbits,1
 374              		.align	2
 375              	.LC4:
 376 0000 50726F67 		.ascii	"Program started\015\012\000"
 376      72616D20 
 376      73746172 
 376      7465640D 
 376      0A00
 377 0012 0000     		.space	2
 378              	.LC5:
 379 0014 5265640D 		.ascii	"Red\015\012\000"
 379      0A00
 380 001a 0000     		.space	2
 381              	.LC6:
 382 001c 47726565 		.ascii	"Green\015\012\000"
 382      6E0D0A00 
 383              	.LC7:
 384 0024 426C7565 		.ascii	"Blue\015\012\000"
 384      0D0A00
ARM GAS  C:\Users\MARCUS~1\AppData\Local\Temp\ccwRvUNC.s 			page 10


 385 002b 00       		.space	1
 386              	.LC8:
 387 002c 50757270 		.ascii	"Purple\015\012\000"
 387      6C650D0A 
 387      00
 388 0035 000000   		.space	3
 389              	.LC9:
 390 0038 59656C6C 		.ascii	"Yellowish\015\012\000"
 390      6F776973 
 390      680D0A00 
 391              	.LC10:
 392 0044 54757271 		.ascii	"Turqish\015\012\000"
 392      6973680D 
 392      0A00
 393              		.bss
 394              		.align	2
 395              		.set	.LANCHOR1,. + 0
 396              		.type	globalRed, %object
 397              		.size	globalRed, 4
 398              	globalRed:
 399 0000 00000000 		.space	4
 400              		.type	globalGreen, %object
 401              		.size	globalGreen, 4
 402              	globalGreen:
 403 0004 00000000 		.space	4
 404              		.type	globalBlue, %object
 405              		.size	globalBlue, 4
 406              	globalBlue:
 407 0008 00000000 		.space	4
 408              		.text
 409              	.Letext0:
 410              		.file 2 "f:\\marcus\\software\\psoc creator\\4.2\\psoc creator\\import\\gnu\\arm\\5.4.1\\arm-none-
 411              		.file 3 "f:\\marcus\\software\\psoc creator\\4.2\\psoc creator\\import\\gnu\\arm\\5.4.1\\arm-none-
 412              		.file 4 "rgb_led.h"
 413              		.file 5 "light_control.h"
 414              		.file 6 "Generated_Source\\PSoC5/core_cm3.h"
 415              		.file 7 "Generated_Source\\PSoC5/isr_uart_rx.h"
 416              		.file 8 "Generated_Source\\PSoC5/UART_1.h"