ARM GAS  C:\Users\MARCUS~1\AppData\Local\Temp\ccLE0Yri.s 			page 1


   1              		.syntax unified
   2              		.cpu cortex-m3
   3              		.fpu softvfp
   4              		.eabi_attribute 20, 1
   5              		.eabi_attribute 21, 1
   6              		.eabi_attribute 23, 3
   7              		.eabi_attribute 24, 1
   8              		.eabi_attribute 25, 1
   9              		.eabi_attribute 26, 1
  10              		.eabi_attribute 30, 1
  11              		.eabi_attribute 34, 1
  12              		.eabi_attribute 18, 4
  13              		.thumb
  14              		.syntax unified
  15              		.file	"rgb_led.c"
  16              		.text
  17              	.Ltext0:
  18              		.cfi_sections	.debug_frame
  19              		.section	.text.initRGBLED,"ax",%progbits
  20              		.align	2
  21              		.global	initRGBLED
  22              		.thumb
  23              		.thumb_func
  24              		.type	initRGBLED, %function
  25              	initRGBLED:
  26              	.LFB63:
  27              		.file 1 "rgb_led.c"
   1:rgb_led.c     **** /* ========================================
   2:rgb_led.c     ****  *
   3:rgb_led.c     ****  * Copyright YOUR COMPANY, THE YEAR
   4:rgb_led.c     ****  * All Rights Reserved
   5:rgb_led.c     ****  * UNPUBLISHED, LICENSED SOFTWARE.
   6:rgb_led.c     ****  *
   7:rgb_led.c     ****  * CONFIDENTIAL AND PROPRIETARY INFORMATION
   8:rgb_led.c     ****  * WHICH IS THE PROPERTY OF your company.
   9:rgb_led.c     ****  *
  10:rgb_led.c     ****  * ========================================
  11:rgb_led.c     **** */
  12:rgb_led.c     **** #include "rgb_led.h"
  13:rgb_led.c     **** 
  14:rgb_led.c     **** void initRGBLED()
  15:rgb_led.c     **** {
  28              		.loc 1 15 0
  29              		.cfi_startproc
  30              		@ args = 0, pretend = 0, frame = 0
  31              		@ frame_needed = 0, uses_anonymous_args = 0
  32 0000 08B5     		push	{r3, lr}
  33              		.cfi_def_cfa_offset 8
  34              		.cfi_offset 3, -8
  35              		.cfi_offset 14, -4
  16:rgb_led.c     ****     //Init colors and brightness pwm
  17:rgb_led.c     ****     PWM_RED_Start();
  36              		.loc 1 17 0
  37 0002 FFF7FEFF 		bl	PWM_RED_Start
  38              	.LVL0:
  18:rgb_led.c     ****     PWM_GREEN_Start();
  39              		.loc 1 18 0
ARM GAS  C:\Users\MARCUS~1\AppData\Local\Temp\ccLE0Yri.s 			page 2


  40 0006 FFF7FEFF 		bl	PWM_GREEN_Start
  41              	.LVL1:
  19:rgb_led.c     ****     PWM_BLUE_Start();
  42              		.loc 1 19 0
  43 000a FFF7FEFF 		bl	PWM_BLUE_Start
  44              	.LVL2:
  45 000e 08BD     		pop	{r3, pc}
  46              		.cfi_endproc
  47              	.LFE63:
  48              		.size	initRGBLED, .-initRGBLED
  49              		.section	.text.setRed,"ax",%progbits
  50              		.align	2
  51              		.global	setRed
  52              		.thumb
  53              		.thumb_func
  54              		.type	setRed, %function
  55              	setRed:
  56              	.LFB65:
  20:rgb_led.c     **** }
  21:rgb_led.c     **** 
  22:rgb_led.c     **** 
  23:rgb_led.c     **** void setColor(color_t color)
  24:rgb_led.c     **** {
  25:rgb_led.c     ****     setRed(color.red);
  26:rgb_led.c     ****     setGreen(color.green);
  27:rgb_led.c     ****     setBlue(color.blue);
  28:rgb_led.c     **** }
  29:rgb_led.c     **** 
  30:rgb_led.c     **** void setRed(uint8_t R)
  31:rgb_led.c     **** {
  57              		.loc 1 31 0
  58              		.cfi_startproc
  59              		@ args = 0, pretend = 0, frame = 0
  60              		@ frame_needed = 0, uses_anonymous_args = 0
  61              	.LVL3:
  62 0000 08B5     		push	{r3, lr}
  63              		.cfi_def_cfa_offset 8
  64              		.cfi_offset 3, -8
  65              		.cfi_offset 14, -4
  66              	.LVL4:
  32:rgb_led.c     ****     uint8_t red = R>=0 && R<=255 ? R : getRed(); //Bound Check
  33:rgb_led.c     ****     PWM_RED_WriteCompare(255-red);
  67              		.loc 1 33 0
  68 0002 C043     		mvns	r0, r0
  69              	.LVL5:
  70 0004 C0B2     		uxtb	r0, r0
  71 0006 FFF7FEFF 		bl	PWM_RED_WriteCompare
  72              	.LVL6:
  73 000a 08BD     		pop	{r3, pc}
  74              		.cfi_endproc
  75              	.LFE65:
  76              		.size	setRed, .-setRed
  77              		.section	.text.setGreen,"ax",%progbits
  78              		.align	2
  79              		.global	setGreen
  80              		.thumb
  81              		.thumb_func
ARM GAS  C:\Users\MARCUS~1\AppData\Local\Temp\ccLE0Yri.s 			page 3


  82              		.type	setGreen, %function
  83              	setGreen:
  84              	.LFB66:
  34:rgb_led.c     **** }
  35:rgb_led.c     **** 
  36:rgb_led.c     **** void setGreen(uint8_t G)
  37:rgb_led.c     **** {
  85              		.loc 1 37 0
  86              		.cfi_startproc
  87              		@ args = 0, pretend = 0, frame = 0
  88              		@ frame_needed = 0, uses_anonymous_args = 0
  89              	.LVL7:
  90 0000 08B5     		push	{r3, lr}
  91              		.cfi_def_cfa_offset 8
  92              		.cfi_offset 3, -8
  93              		.cfi_offset 14, -4
  94              	.LVL8:
  38:rgb_led.c     ****     uint8_t green = G>=0 && G<=255 ? G : getGreen(); //Bound Check
  39:rgb_led.c     ****     PWM_GREEN_WriteCompare(255-green);
  95              		.loc 1 39 0
  96 0002 C043     		mvns	r0, r0
  97              	.LVL9:
  98 0004 C0B2     		uxtb	r0, r0
  99 0006 FFF7FEFF 		bl	PWM_GREEN_WriteCompare
 100              	.LVL10:
 101 000a 08BD     		pop	{r3, pc}
 102              		.cfi_endproc
 103              	.LFE66:
 104              		.size	setGreen, .-setGreen
 105              		.section	.text.setBlue,"ax",%progbits
 106              		.align	2
 107              		.global	setBlue
 108              		.thumb
 109              		.thumb_func
 110              		.type	setBlue, %function
 111              	setBlue:
 112              	.LFB67:
  40:rgb_led.c     **** }
  41:rgb_led.c     **** 
  42:rgb_led.c     **** void setBlue(uint8_t B)
  43:rgb_led.c     **** {
 113              		.loc 1 43 0
 114              		.cfi_startproc
 115              		@ args = 0, pretend = 0, frame = 0
 116              		@ frame_needed = 0, uses_anonymous_args = 0
 117              	.LVL11:
 118 0000 08B5     		push	{r3, lr}
 119              		.cfi_def_cfa_offset 8
 120              		.cfi_offset 3, -8
 121              		.cfi_offset 14, -4
 122              	.LVL12:
  44:rgb_led.c     ****     uint8_t blue = B>=0 && B<=255 ? B : getBlue(); //Bound Check
  45:rgb_led.c     ****     PWM_BLUE_WriteCompare(255-blue);
 123              		.loc 1 45 0
 124 0002 C043     		mvns	r0, r0
 125              	.LVL13:
 126 0004 C0B2     		uxtb	r0, r0
ARM GAS  C:\Users\MARCUS~1\AppData\Local\Temp\ccLE0Yri.s 			page 4


 127 0006 FFF7FEFF 		bl	PWM_BLUE_WriteCompare
 128              	.LVL14:
 129 000a 08BD     		pop	{r3, pc}
 130              		.cfi_endproc
 131              	.LFE67:
 132              		.size	setBlue, .-setBlue
 133              		.section	.text.setColor,"ax",%progbits
 134              		.align	2
 135              		.global	setColor
 136              		.thumb
 137              		.thumb_func
 138              		.type	setColor, %function
 139              	setColor:
 140              	.LFB64:
  24:rgb_led.c     ****     setRed(color.red);
 141              		.loc 1 24 0
 142              		.cfi_startproc
 143              		@ args = 0, pretend = 0, frame = 8
 144              		@ frame_needed = 0, uses_anonymous_args = 0
 145 0000 00B5     		push	{lr}
 146              		.cfi_def_cfa_offset 4
 147              		.cfi_offset 14, -4
 148 0002 83B0     		sub	sp, sp, #12
 149              		.cfi_def_cfa_offset 16
 150 0004 0190     		str	r0, [sp, #4]
  25:rgb_led.c     ****     setGreen(color.green);
 151              		.loc 1 25 0
 152 0006 C0B2     		uxtb	r0, r0
 153 0008 FFF7FEFF 		bl	setRed
 154              	.LVL15:
  26:rgb_led.c     ****     setBlue(color.blue);
 155              		.loc 1 26 0
 156 000c 9DF80500 		ldrb	r0, [sp, #5]	@ zero_extendqisi2
 157 0010 FFF7FEFF 		bl	setGreen
 158              	.LVL16:
  27:rgb_led.c     **** }
 159              		.loc 1 27 0
 160 0014 9DF80600 		ldrb	r0, [sp, #6]	@ zero_extendqisi2
 161 0018 FFF7FEFF 		bl	setBlue
 162              	.LVL17:
  28:rgb_led.c     **** 
 163              		.loc 1 28 0
 164 001c 03B0     		add	sp, sp, #12
 165              		.cfi_def_cfa_offset 4
 166              		@ sp needed
 167 001e 5DF804FB 		ldr	pc, [sp], #4
 168              		.cfi_endproc
 169              	.LFE64:
 170              		.size	setColor, .-setColor
 171 0022 00BF     		.section	.text.getRed,"ax",%progbits
 172              		.align	2
 173              		.global	getRed
 174              		.thumb
 175              		.thumb_func
 176              		.type	getRed, %function
 177              	getRed:
 178              	.LFB68:
ARM GAS  C:\Users\MARCUS~1\AppData\Local\Temp\ccLE0Yri.s 			page 5


  46:rgb_led.c     **** }
  47:rgb_led.c     **** 
  48:rgb_led.c     **** uint8_t getRed(void)
  49:rgb_led.c     **** {
 179              		.loc 1 49 0
 180              		.cfi_startproc
 181              		@ args = 0, pretend = 0, frame = 0
 182              		@ frame_needed = 0, uses_anonymous_args = 0
 183 0000 08B5     		push	{r3, lr}
 184              		.cfi_def_cfa_offset 8
 185              		.cfi_offset 3, -8
 186              		.cfi_offset 14, -4
  50:rgb_led.c     ****     return PWM_RED_ReadCompare();
 187              		.loc 1 50 0
 188 0002 FFF7FEFF 		bl	PWM_RED_ReadCompare
 189              	.LVL18:
  51:rgb_led.c     **** }
 190              		.loc 1 51 0
 191 0006 08BD     		pop	{r3, pc}
 192              		.cfi_endproc
 193              	.LFE68:
 194              		.size	getRed, .-getRed
 195              		.section	.text.getGreen,"ax",%progbits
 196              		.align	2
 197              		.global	getGreen
 198              		.thumb
 199              		.thumb_func
 200              		.type	getGreen, %function
 201              	getGreen:
 202              	.LFB69:
  52:rgb_led.c     **** 
  53:rgb_led.c     **** uint8_t getGreen(void)
  54:rgb_led.c     **** {
 203              		.loc 1 54 0
 204              		.cfi_startproc
 205              		@ args = 0, pretend = 0, frame = 0
 206              		@ frame_needed = 0, uses_anonymous_args = 0
 207 0000 08B5     		push	{r3, lr}
 208              		.cfi_def_cfa_offset 8
 209              		.cfi_offset 3, -8
 210              		.cfi_offset 14, -4
  55:rgb_led.c     ****     return PWM_GREEN_ReadCompare();
 211              		.loc 1 55 0
 212 0002 FFF7FEFF 		bl	PWM_GREEN_ReadCompare
 213              	.LVL19:
  56:rgb_led.c     **** }
 214              		.loc 1 56 0
 215 0006 08BD     		pop	{r3, pc}
 216              		.cfi_endproc
 217              	.LFE69:
 218              		.size	getGreen, .-getGreen
 219              		.section	.text.getBlue,"ax",%progbits
 220              		.align	2
 221              		.global	getBlue
 222              		.thumb
 223              		.thumb_func
 224              		.type	getBlue, %function
ARM GAS  C:\Users\MARCUS~1\AppData\Local\Temp\ccLE0Yri.s 			page 6


 225              	getBlue:
 226              	.LFB70:
  57:rgb_led.c     **** uint8_t getBlue(void)
  58:rgb_led.c     **** {
 227              		.loc 1 58 0
 228              		.cfi_startproc
 229              		@ args = 0, pretend = 0, frame = 0
 230              		@ frame_needed = 0, uses_anonymous_args = 0
 231 0000 08B5     		push	{r3, lr}
 232              		.cfi_def_cfa_offset 8
 233              		.cfi_offset 3, -8
 234              		.cfi_offset 14, -4
  59:rgb_led.c     ****     return PWM_BLUE_ReadCompare();
 235              		.loc 1 59 0
 236 0002 FFF7FEFF 		bl	PWM_BLUE_ReadCompare
 237              	.LVL20:
  60:rgb_led.c     **** }
 238              		.loc 1 60 0
 239 0006 08BD     		pop	{r3, pc}
 240              		.cfi_endproc
 241              	.LFE70:
 242              		.size	getBlue, .-getBlue
 243              		.text
 244              	.Letext0:
 245              		.file 2 "f:\\marcus\\software\\psoc creator\\4.2\\psoc creator\\import\\gnu\\arm\\5.4.1\\arm-none-
 246              		.file 3 "f:\\marcus\\software\\psoc creator\\4.2\\psoc creator\\import\\gnu\\arm\\5.4.1\\arm-none-
 247              		.file 4 "rgb_led.h"
 248              		.file 5 "Generated_Source\\PSoC5/PWM_RED.h"
 249              		.file 6 "Generated_Source\\PSoC5/PWM_GREEN.h"
 250              		.file 7 "Generated_Source\\PSoC5/PWM_BLUE.h"
 251              		.file 8 "Generated_Source\\PSoC5/core_cm3.h"